target datalayout = "e-m:e-p270:32:32-p271:32:32-p272:64:64-i64:64-i128:128-f80:128-n8:16:32:64-S128"
target triple = "x86_64-pc-linux-gnu"

%struct.t_atoms = type { i32, ptr, ptr, ptr, ptr, i32, ptr, ptr, i8, i8, i8, i8, i8 }
%struct.t_atom = type { float, float, float, float, i16, i16, i32, i32, i32, [4 x i8] }

@.str = private unnamed_addr constant [1 x i8] zeroinitializer, align 1
@.str.25 = private unnamed_addr constant [6 x i8] c"# %s\0A\00", align 1
@.str.26 = private unnamed_addr constant [58 x i8] c"The Espresso format does not support triclinic unit-cells\00", align 1
@.str.27 = private unnamed_addr constant [29 x i8] c"{variable {box_l %f %f %f}}\0A\00", align 1
@.str.28 = private unnamed_addr constant [30 x i8] c"{particles {id pos type q%s}\0A\00", align 1
@.str.29 = private unnamed_addr constant [3 x i8] c" v\00", align 1
@.str.30 = private unnamed_addr constant [21 x i8] c"\09{%d %f %f %f %hu %g\00", align 1
@.str.31 = private unnamed_addr constant [10 x i8] c" %f %f %f\00", align 1
@.str.32 = private unnamed_addr constant [3 x i8] c"}\0A\00", align 1

; Function Attrs: mustprogress uwtable
define void @_Z27write_espresso_conf_indexedP8_IO_FILEPKcPK7t_atomsiPKiPA3_KfSA_SA_(ptr noundef %0, ptr noundef %1, ptr noundef %2, i32 noundef %3, ptr noundef %4, ptr noundef %5, ptr noundef %6, ptr noundef %7) #0 {
  %9 = alloca ptr, align 8
  %10 = alloca ptr, align 8
  %11 = alloca ptr, align 8
  %12 = alloca i32, align 4
  %13 = alloca ptr, align 8
  %14 = alloca ptr, align 8
  %15 = alloca ptr, align 8
  %16 = alloca ptr, align 8
  %17 = alloca i32, align 4
  %18 = alloca i32, align 4
  store ptr %0, ptr %9, align 8, !tbaa !33
  store ptr %1, ptr %10, align 8, !tbaa !18
  store ptr %2, ptr %11, align 8, !tbaa !14
  store i32 %3, ptr %12, align 4, !tbaa !36
  store ptr %4, ptr %13, align 8, !tbaa !124
  store ptr %5, ptr %14, align 8, !tbaa !16
  store ptr %6, ptr %15, align 8, !tbaa !16
  store ptr %7, ptr %16, align 8, !tbaa !16
  call void @llvm.lifetime.start.p0(i64 4, ptr %17) #13
  call void @llvm.lifetime.start.p0(i64 4, ptr %18) #13
  %19 = load ptr, ptr %9, align 8, !tbaa !33
  %20 = load ptr, ptr %10, align 8, !tbaa !18
  %21 = call i32 (ptr, ptr, ...) @fprintf(ptr noundef %19, ptr noundef @.str.25, ptr noundef %20) #13
  %22 = load ptr, ptr %16, align 8, !tbaa !16
  %23 = getelementptr inbounds [3 x float], ptr %22, i64 1
  %24 = getelementptr inbounds [3 x float], ptr %23, i64 0, i64 0
  %25 = load float, ptr %24, align 4, !tbaa !45
  %26 = fcmp une float %25, 0.000000e+00
  br i1 %26, label %39, label %27

27:                                               ; preds = %8
  %28 = load ptr, ptr %16, align 8, !tbaa !16
  %29 = getelementptr inbounds [3 x float], ptr %28, i64 2
  %30 = getelementptr inbounds [3 x float], ptr %29, i64 0, i64 0
  %31 = load float, ptr %30, align 4, !tbaa !45
  %32 = fcmp une float %31, 0.000000e+00
  br i1 %32, label %39, label %33

33:                                               ; preds = %27
  %34 = load ptr, ptr %16, align 8, !tbaa !16
  %35 = getelementptr inbounds [3 x float], ptr %34, i64 2
  %36 = getelementptr inbounds [3 x float], ptr %35, i64 0, i64 1
  %37 = load float, ptr %36, align 4, !tbaa !45
  %38 = fcmp une float %37, 0.000000e+00
  br i1 %38, label %39, label %40

39:                                               ; preds = %33, %27, %8
  call void (ptr, ...) @_Z11gmx_warningPKcz(ptr noundef @.str.26)
  br label %40

40:                                               ; preds = %39, %33
  %41 = load ptr, ptr %9, align 8, !tbaa !33
  %42 = load ptr, ptr %16, align 8, !tbaa !16
  %43 = getelementptr inbounds [3 x float], ptr %42, i64 0
  %44 = getelementptr inbounds [3 x float], ptr %43, i64 0, i64 0
  %45 = load float, ptr %44, align 4, !tbaa !45
  %46 = fpext float %45 to double
  %47 = load ptr, ptr %16, align 8, !tbaa !16
  %48 = getelementptr inbounds [3 x float], ptr %47, i64 1
  %49 = getelementptr inbounds [3 x float], ptr %48, i64 0, i64 1
  %50 = load float, ptr %49, align 4, !tbaa !45
  %51 = fpext float %50 to double
  %52 = load ptr, ptr %16, align 8, !tbaa !16
  %53 = getelementptr inbounds [3 x float], ptr %52, i64 2
  %54 = getelementptr inbounds [3 x float], ptr %53, i64 0, i64 2
  %55 = load float, ptr %54, align 4, !tbaa !45
  %56 = fpext float %55 to double
  %57 = call i32 (ptr, ptr, ...) @fprintf(ptr noundef %41, ptr noundef @.str.27, double noundef %46, double noundef %51, double noundef %56) #13
  %58 = load ptr, ptr %9, align 8, !tbaa !33
  %59 = load ptr, ptr %15, align 8, !tbaa !16
  %60 = icmp ne ptr %59, null
  %61 = select i1 %60, ptr @.str.29, ptr @.str
  %62 = call i32 (ptr, ptr, ...) @fprintf(ptr noundef %58, ptr noundef @.str.28, ptr noundef %61) #13
  store i32 0, ptr %17, align 4, !tbaa !36
  br label %63

63:                                               ; preds = %150, %40
  %64 = load i32, ptr %17, align 4, !tbaa !36
  %65 = load i32, ptr %12, align 4, !tbaa !36
  %66 = icmp slt i32 %64, %65
  br i1 %66, label %67, label %153

67:                                               ; preds = %63
  %68 = load ptr, ptr %13, align 8, !tbaa !124
  %69 = icmp ne ptr %68, null
  br i1 %69, label %70, label %76

70:                                               ; preds = %67
  %71 = load ptr, ptr %13, align 8, !tbaa !124
  %72 = load i32, ptr %17, align 4, !tbaa !36
  %73 = sext i32 %72 to i64
  %74 = getelementptr inbounds i32, ptr %71, i64 %73
  %75 = load i32, ptr %74, align 4, !tbaa !36
  store i32 %75, ptr %18, align 4, !tbaa !36
  br label %78

76:                                               ; preds = %67
  %77 = load i32, ptr %17, align 4, !tbaa !36
  store i32 %77, ptr %18, align 4, !tbaa !36
  br label %78

78:                                               ; preds = %76, %70
  %79 = load ptr, ptr %9, align 8, !tbaa !33
  %80 = load i32, ptr %18, align 4, !tbaa !36
  %81 = load ptr, ptr %14, align 8, !tbaa !16
  %82 = load i32, ptr %18, align 4, !tbaa !36
  %83 = sext i32 %82 to i64
  %84 = getelementptr inbounds [3 x float], ptr %81, i64 %83
  %85 = getelementptr inbounds [3 x float], ptr %84, i64 0, i64 0
  %86 = load float, ptr %85, align 4, !tbaa !45
  %87 = fpext float %86 to double
  %88 = load ptr, ptr %14, align 8, !tbaa !16
  %89 = load i32, ptr %18, align 4, !tbaa !36
  %90 = sext i32 %89 to i64
  %91 = getelementptr inbounds [3 x float], ptr %88, i64 %90
  %92 = getelementptr inbounds [3 x float], ptr %91, i64 0, i64 1
  %93 = load float, ptr %92, align 4, !tbaa !45
  %94 = fpext float %93 to double
  %95 = load ptr, ptr %14, align 8, !tbaa !16
  %96 = load i32, ptr %18, align 4, !tbaa !36
  %97 = sext i32 %96 to i64
  %98 = getelementptr inbounds [3 x float], ptr %95, i64 %97
  %99 = getelementptr inbounds [3 x float], ptr %98, i64 0, i64 2
  %100 = load float, ptr %99, align 4, !tbaa !45
  %101 = fpext float %100 to double
  %102 = load ptr, ptr %11, align 8, !tbaa !14
  %103 = getelementptr inbounds nuw %struct.t_atoms, ptr %102, i32 0, i32 1
  %104 = load ptr, ptr %103, align 8, !tbaa !48
  %105 = load i32, ptr %18, align 4, !tbaa !36
  %106 = sext i32 %105 to i64
  %107 = getelementptr inbounds %struct.t_atom, ptr %104, i64 %106
  %108 = getelementptr inbounds nuw %struct.t_atom, ptr %107, i32 0, i32 4
  %109 = load i16, ptr %108, align 4, !tbaa !49
  %110 = zext i16 %109 to i32
  %111 = load ptr, ptr %11, align 8, !tbaa !14
  %112 = getelementptr inbounds nuw %struct.t_atoms, ptr %111, i32 0, i32 1
  %113 = load ptr, ptr %112, align 8, !tbaa !48
  %114 = load i32, ptr %18, align 4, !tbaa !36
  %115 = sext i32 %114 to i64
  %116 = getelementptr inbounds %struct.t_atom, ptr %113, i64 %115
  %117 = getelementptr inbounds nuw %struct.t_atom, ptr %116, i32 0, i32 1
  %118 = load float, ptr %117, align 4, !tbaa !53
  %119 = fpext float %118 to double
  %120 = call i32 (ptr, ptr, ...) @fprintf(ptr noundef %79, ptr noundef @.str.30, i32 noundef %80, double noundef %87, double noundef %94, double noundef %101, i32 noundef %110, double noundef %119) #13
  %121 = load ptr, ptr %15, align 8, !tbaa !16
  %122 = icmp ne ptr %121, null
  br i1 %122, label %123, label %147

123:                                              ; preds = %78
  %124 = load ptr, ptr %9, align 8, !tbaa !33
  %125 = load ptr, ptr %15, align 8, !tbaa !16
  %126 = load i32, ptr %18, align 4, !tbaa !36
  %127 = sext i32 %126 to i64
  %128 = getelementptr inbounds [3 x float], ptr %125, i64 %127
  %129 = getelementptr inbounds [3 x float], ptr %128, i64 0, i64 0
  %130 = load float, ptr %129, align 4, !tbaa !45
  %131 = fpext float %130 to double
  %132 = load ptr, ptr %15, align 8, !tbaa !16
  %133 = load i32, ptr %18, align 4, !tbaa !36
  %134 = sext i32 %133 to i64
  %135 = getelementptr inbounds [3 x float], ptr %132, i64 %134
  %136 = getelementptr inbounds [3 x float], ptr %135, i64 0, i64 1
  %137 = load float, ptr %136, align 4, !tbaa !45
  %138 = fpext float %137 to double
  %139 = load ptr, ptr %15, align 8, !tbaa !16
  %140 = load i32, ptr %18, align 4, !tbaa !36
  %141 = sext i32 %140 to i64
  %142 = getelementptr inbounds [3 x float], ptr %139, i64 %141
  %143 = getelementptr inbounds [3 x float], ptr %142, i64 0, i64 2
  %144 = load float, ptr %143, align 4, !tbaa !45
  %145 = fpext float %144 to double
  %146 = call i32 (ptr, ptr, ...) @fprintf(ptr noundef %124, ptr noundef @.str.31, double noundef %131, double noundef %138, double noundef %145) #13
  br label %147

147:                                              ; preds = %123, %78
  %148 = load ptr, ptr %9, align 8, !tbaa !33
  %149 = call i32 (ptr, ptr, ...) @fprintf(ptr noundef %148, ptr noundef @.str.32) #13
  br label %150

150:                                              ; preds = %147
  %151 = load i32, ptr %17, align 4, !tbaa !36
  %152 = add nsw i32 %151, 1
  store i32 %152, ptr %17, align 4, !tbaa !36
  br label %63, !llvm.loop !126

153:                                              ; preds = %63
  %154 = load ptr, ptr %9, align 8, !tbaa !33
  %155 = call i32 (ptr, ptr, ...) @fprintf(ptr noundef %154, ptr noundef @.str.32) #13
  call void @llvm.lifetime.end.p0(i64 4, ptr %18) #13
  call void @llvm.lifetime.end.p0(i64 4, ptr %17) #13
  ret void
}