; Function Attrs: mustprogress uwtable
define void @_Z27write_espresso_conf_indexedP8_IO_FILEPKcPK7t_atomsiPKiPA3_KfSA_SA_(ptr noundef captures(none) %0, ptr noundef %1, ptr noundef readonly captures(none) %2, i32 noundef %3, ptr noundef readonly %4, ptr noundef readonly captures(none) %5, ptr noundef readonly %6, ptr noundef readonly captures(none) %7) local_unnamed_addr #0 {
  %9 = tail call i32 (ptr, ptr, ...) @fprintf(ptr noundef %0, ptr noundef nonnull @.str.25, ptr noundef %1) #17
  %10 = getelementptr inbounds nuw i8, ptr %7, i64 12
  %11 = load float, ptr %10, align 4, !tbaa !28
  %12 = fcmp une float %11, 0.000000e+00
  br i1 %12, label %21, label %13

13:                                               ; preds = %8
  %14 = getelementptr inbounds nuw i8, ptr %7, i64 24
  %15 = load float, ptr %14, align 4, !tbaa !28
  %16 = fcmp une float %15, 0.000000e+00
  br i1 %16, label %21, label %17

17:                                               ; preds = %13
  %18 = getelementptr inbounds nuw i8, ptr %7, i64 28
  %19 = load float, ptr %18, align 4, !tbaa !28
  %20 = fcmp une float %19, 0.000000e+00
  br i1 %20, label %21, label %22

21:                                               ; preds = %17, %13, %8
  tail call void (ptr, ...) @_Z11gmx_warningPKcz(ptr noundef nonnull @.str.26)
  br label %22

22:                                               ; preds = %21, %17
  %23 = load float, ptr %7, align 4, !tbaa !28
  %24 = fpext float %23 to double
  %25 = getelementptr inbounds nuw i8, ptr %7, i64 16
  %26 = load float, ptr %25, align 4, !tbaa !28
  %27 = fpext float %26 to double
  %28 = getelementptr inbounds nuw i8, ptr %7, i64 32
  %29 = load float, ptr %28, align 4, !tbaa !28
  %30 = fpext float %29 to double
  %31 = tail call i32 (ptr, ptr, ...) @fprintf(ptr noundef %0, ptr noundef nonnull @.str.27, double noundef %24, double noundef %27, double noundef %30) #17
  %.not = icmp eq ptr %6, null
  %32 = select i1 %.not, ptr @.str, ptr @.str.29
  %33 = tail call i32 (ptr, ptr, ...) @fprintf(ptr noundef %0, ptr noundef nonnull @.str.28, ptr noundef nonnull %32) #17
  %34 = icmp sgt i32 %3, 0
  br i1 %34, label %.lr.ph, label %._crit_edge

.lr.ph:                                           ; preds = %22
  %.not42 = icmp eq ptr %4, null
  %35 = getelementptr inbounds nuw i8, ptr %2, i64 8
  %wide.trip.count63 = zext nneg i32 %3 to i64
  br i1 %.not, label %.lr.ph.split.us, label %.lr.ph.split

.lr.ph.split.us:                                  ; preds = %.lr.ph
  br i1 %.not42, label %.lr.ph.split.us.split.us, label %.lr.ph.split.us.split

.lr.ph.split.us.split.us:                         ; preds = %.lr.ph.split.us, %.lr.ph.split.us.split.us
  %indvars.iv60 = phi i64 [ %indvars.iv.next61, %.lr.ph.split.us.split.us ], [ 0, %.lr.ph.split.us ]
  %36 = getelementptr inbounds nuw [3 x float], ptr %5, i64 %indvars.iv60
  %37 = load float, ptr %36, align 4, !tbaa !28
  %38 = fpext float %37 to double
  %39 = getelementptr inbounds nuw i8, ptr %36, i64 4
  %40 = load float, ptr %39, align 4, !tbaa !28
  %41 = fpext float %40 to double
  %42 = getelementptr inbounds nuw i8, ptr %36, i64 8
  %43 = load float, ptr %42, align 4, !tbaa !28
  %44 = fpext float %43 to double
  %45 = load ptr, ptr %35, align 8, !tbaa !31
  %46 = getelementptr inbounds nuw %struct.t_atom, ptr %45, i64 %indvars.iv60
  %47 = getelementptr inbounds nuw i8, ptr %46, i64 16
  %48 = load i16, ptr %47, align 4, !tbaa !32
  %49 = zext i16 %48 to i32
  %50 = getelementptr inbounds nuw i8, ptr %46, i64 4
  %51 = load float, ptr %50, align 4, !tbaa !36
  %52 = fpext float %51 to double
  %53 = trunc nuw nsw i64 %indvars.iv60 to i32
  %54 = tail call i32 (ptr, ptr, ...) @fprintf(ptr noundef %0, ptr noundef nonnull @.str.30, i32 noundef %53, double noundef %38, double noundef %41, double noundef %44, i32 noundef %49, double noundef %52) #17
  %55 = tail call i64 @fwrite(ptr nonnull @.str.32, i64 2, i64 1, ptr %0)
  %indvars.iv.next61 = add nuw nsw i64 %indvars.iv60, 1
  %exitcond64.not = icmp eq i64 %indvars.iv.next61, %wide.trip.count63
  br i1 %exitcond64.not, label %._crit_edge, label %.lr.ph.split.us.split.us, !llvm.loop !84

.lr.ph.split.us.split:                            ; preds = %.lr.ph.split.us, %.lr.ph.split.us.split
  %indvars.iv55 = phi i64 [ %indvars.iv.next56, %.lr.ph.split.us.split ], [ 0, %.lr.ph.split.us ]
  %56 = getelementptr inbounds nuw i32, ptr %4, i64 %indvars.iv55
  %57 = load i32, ptr %56, align 4, !tbaa !12
  %58 = sext i32 %57 to i64
  %59 = getelementptr inbounds [3 x float], ptr %5, i64 %58
  %60 = load float, ptr %59, align 4, !tbaa !28
  %61 = fpext float %60 to double
  %62 = getelementptr inbounds nuw i8, ptr %59, i64 4
  %63 = load float, ptr %62, align 4, !tbaa !28
  %64 = fpext float %63 to double
  %65 = getelementptr inbounds nuw i8, ptr %59, i64 8
  %66 = load float, ptr %65, align 4, !tbaa !28
  %67 = fpext float %66 to double
  %68 = load ptr, ptr %35, align 8, !tbaa !31
  %69 = getelementptr inbounds %struct.t_atom, ptr %68, i64 %58
  %70 = getelementptr inbounds nuw i8, ptr %69, i64 16
  %71 = load i16, ptr %70, align 4, !tbaa !32
  %72 = zext i16 %71 to i32
  %73 = getelementptr inbounds nuw i8, ptr %69, i64 4
  %74 = load float, ptr %73, align 4, !tbaa !36
  %75 = fpext float %74 to double
  %76 = tail call i32 (ptr, ptr, ...) @fprintf(ptr noundef %0, ptr noundef nonnull @.str.30, i32 noundef %57, double noundef %61, double noundef %64, double noundef %67, i32 noundef %72, double noundef %75) #17
  %77 = tail call i64 @fwrite(ptr nonnull @.str.32, i64 2, i64 1, ptr %0)
  %indvars.iv.next56 = add nuw nsw i64 %indvars.iv55, 1
  %exitcond59.not = icmp eq i64 %indvars.iv.next56, %wide.trip.count63
  br i1 %exitcond59.not, label %._crit_edge, label %.lr.ph.split.us.split, !llvm.loop !84

.lr.ph.split:                                     ; preds = %.lr.ph
  br i1 %.not42, label %.lr.ph.split.split.us, label %.lr.ph.split.split

.lr.ph.split.split.us:                            ; preds = %.lr.ph.split, %.lr.ph.split.split.us
  %indvars.iv50 = phi i64 [ %indvars.iv.next51, %.lr.ph.split.split.us ], [ 0, %.lr.ph.split ]
  %78 = getelementptr inbounds nuw [3 x float], ptr %5, i64 %indvars.iv50
  %79 = load float, ptr %78, align 4, !tbaa !28
  %80 = fpext float %79 to double
  %81 = getelementptr inbounds nuw i8, ptr %78, i64 4
  %82 = load float, ptr %81, align 4, !tbaa !28
  %83 = fpext float %82 to double
  %84 = getelementptr inbounds nuw i8, ptr %78, i64 8
  %85 = load float, ptr %84, align 4, !tbaa !28
  %86 = fpext float %85 to double
  %87 = load ptr, ptr %35, align 8, !tbaa !31
  %88 = getelementptr inbounds nuw %struct.t_atom, ptr %87, i64 %indvars.iv50
  %89 = getelementptr inbounds nuw i8, ptr %88, i64 16
  %90 = load i16, ptr %89, align 4, !tbaa !32
  %91 = zext i16 %90 to i32
  %92 = getelementptr inbounds nuw i8, ptr %88, i64 4
  %93 = load float, ptr %92, align 4, !tbaa !36
  %94 = fpext float %93 to double
  %95 = trunc nuw nsw i64 %indvars.iv50 to i32
  %96 = tail call i32 (ptr, ptr, ...) @fprintf(ptr noundef %0, ptr noundef nonnull @.str.30, i32 noundef %95, double noundef %80, double noundef %83, double noundef %86, i32 noundef %91, double noundef %94) #17
  %97 = getelementptr inbounds nuw [3 x float], ptr %6, i64 %indvars.iv50
  %98 = load float, ptr %97, align 4, !tbaa !28
  %99 = fpext float %98 to double
  %100 = getelementptr inbounds nuw i8, ptr %97, i64 4
  %101 = load float, ptr %100, align 4, !tbaa !28
  %102 = fpext float %101 to double
  %103 = getelementptr inbounds nuw i8, ptr %97, i64 8
  %104 = load float, ptr %103, align 4, !tbaa !28
  %105 = fpext float %104 to double
  %106 = tail call i32 (ptr, ptr, ...) @fprintf(ptr noundef %0, ptr noundef nonnull @.str.31, double noundef %99, double noundef %102, double noundef %105) #17
  %107 = tail call i64 @fwrite(ptr nonnull @.str.32, i64 2, i64 1, ptr %0)
  %indvars.iv.next51 = add nuw nsw i64 %indvars.iv50, 1
  %exitcond54.not = icmp eq i64 %indvars.iv.next51, %wide.trip.count63
  br i1 %exitcond54.not, label %._crit_edge, label %.lr.ph.split.split.us, !llvm.loop !84

.lr.ph.split.split:                               ; preds = %.lr.ph.split, %.lr.ph.split.split
  %indvars.iv = phi i64 [ %indvars.iv.next, %.lr.ph.split.split ], [ 0, %.lr.ph.split ]
  %108 = getelementptr inbounds nuw i32, ptr %4, i64 %indvars.iv
  %109 = load i32, ptr %108, align 4, !tbaa !12
  %110 = sext i32 %109 to i64
  %111 = getelementptr inbounds [3 x float], ptr %5, i64 %110
  %112 = load float, ptr %111, align 4, !tbaa !28
  %113 = fpext float %112 to double
  %114 = getelementptr inbounds nuw i8, ptr %111, i64 4
  %115 = load float, ptr %114, align 4, !tbaa !28
  %116 = fpext float %115 to double
  %117 = getelementptr inbounds nuw i8, ptr %111, i64 8
  %118 = load float, ptr %117, align 4, !tbaa !28
  %119 = fpext float %118 to double
  %120 = load ptr, ptr %35, align 8, !tbaa !31
  %121 = getelementptr inbounds %struct.t_atom, ptr %120, i64 %110
  %122 = getelementptr inbounds nuw i8, ptr %121, i64 16
  %123 = load i16, ptr %122, align 4, !tbaa !32
  %124 = zext i16 %123 to i32
  %125 = getelementptr inbounds nuw i8, ptr %121, i64 4
  %126 = load float, ptr %125, align 4, !tbaa !36
  %127 = fpext float %126 to double
  %128 = tail call i32 (ptr, ptr, ...) @fprintf(ptr noundef %0, ptr noundef nonnull @.str.30, i32 noundef %109, double noundef %113, double noundef %116, double noundef %119, i32 noundef %124, double noundef %127) #17
  %129 = getelementptr inbounds [3 x float], ptr %6, i64 %110
  %130 = load float, ptr %129, align 4, !tbaa !28
  %131 = fpext float %130 to double
  %132 = getelementptr inbounds nuw i8, ptr %129, i64 4
  %133 = load float, ptr %132, align 4, !tbaa !28
  %134 = fpext float %133 to double
  %135 = getelementptr inbounds nuw i8, ptr %129, i64 8
  %136 = load float, ptr %135, align 4, !tbaa !28
  %137 = fpext float %136 to double
  %138 = tail call i32 (ptr, ptr, ...) @fprintf(ptr noundef %0, ptr noundef nonnull @.str.31, double noundef %131, double noundef %134, double noundef %137) #17
  %139 = tail call i64 @fwrite(ptr nonnull @.str.32, i64 2, i64 1, ptr %0)
  %indvars.iv.next = add nuw nsw i64 %indvars.iv, 1
  %exitcond.not = icmp eq i64 %indvars.iv.next, %wide.trip.count63
  br i1 %exitcond.not, label %._crit_edge, label %.lr.ph.split.split, !llvm.loop !84

._crit_edge:                                      ; preds = %.lr.ph.split.split, %.lr.ph.split.split.us, %.lr.ph.split.us.split, %.lr.ph.split.us.split.us, %22
  %140 = tail call i64 @fwrite(ptr nonnull @.str.32, i64 2, i64 1, ptr %0)
  ret void
}